; Function Attrs: mustprogress uwtable
define internal void @_ZN12_GLOBAL__N_124GeneralizedHoughGuilImpl12processTemplEv(ptr noundef nonnull align 8 dereferenceable(880) %0) unnamed_addr #0 align 2 {
  %2 = getelementptr inbounds nuw i8, ptr %0, i64 56
  %3 = getelementptr inbounds nuw i8, ptr %0, i64 152
  %4 = getelementptr inbounds nuw i8, ptr %0, i64 248
  %5 = getelementptr inbounds nuw i8, ptr %0, i64 784
  %6 = getelementptr inbounds nuw i8, ptr %0, i64 48
  %7 = load i32, ptr %6, align 8, !tbaa !126
  %8 = sitofp i32 %7 to double
  %9 = getelementptr inbounds nuw i8, ptr %0, i64 52
  %10 = load i32, ptr %9, align 4, !tbaa !127
  %11 = sitofp i32 %10 to double
  tail call fastcc void @_ZN12_GLOBAL__N_124GeneralizedHoughGuilImpl16buildFeatureListERKN2cv3MatES4_S4_RSt6vectorIS5_INS0_7FeatureESaIS6_EESaIS8_EENS1_6Point_IdEE(ptr noundef nonnull align 8 dereferenceable(880) %0, ptr noundef nonnull align 8 dereferenceable(96) %2, ptr noundef nonnull align 8 dereferenceable(96) %3, ptr noundef nonnull align 8 dereferenceable(96) %4, ptr noundef nonnull align 8 dereferenceable(24) %5, double %8, double %11)
  ret void
}